; Function Attrs: mustprogress uwtable
define dso_local void @_ZN3ozz2io6ExternINS_4math3BoxEE4SaveERNS0_8OArchiveEPKS3_m(ptr noundef nonnull readonly align 8 captures(none) dereferenceable(9) %0, ptr noundef %1, i64 noundef %2) local_unnamed_addr #0 align 2 {
  %4 = alloca float, align 4
  %5 = mul i64 %2, 6
  %6 = getelementptr inbounds nuw i8, ptr %0, i64 8
  %7 = load i8, ptr %6, align 8, !tbaa !4, !range !11, !noundef !12
  %8 = trunc nuw i8 %7 to i1
  br i1 %8, label %.preheader.i.i, label %22

.preheader.i.i:                                   ; preds = %3
  %.not8.i.i = icmp eq i64 %5, 0
  br i1 %.not8.i.i, label %_ZN3ozz2io8OArchivelsINS0_8internal5ArrayIKfEEEEvRKT_.exit, label %.lr.ph.i.i

.lr.ph.i.i:                                       ; preds = %.preheader.i.i, %.lr.ph.i.i
  %.0.i5.i.i = phi i64 [ %21, %.lr.ph.i.i ], [ 0, %.preheader.i.i ]
  %9 = getelementptr inbounds nuw float, ptr %1, i64 %.0.i5.i.i
  %10 = load float, ptr %9, align 4, !tbaa !13
  call void @llvm.lifetime.start.p0(i64 4, ptr nonnull %4) #3
  %11 = load i8, ptr %6, align 8, !tbaa !4, !range !11, !noundef !12
  %12 = trunc nuw i8 %11 to i1
  %13 = bitcast float %10 to i32
  %.1.insert.insert16.i.i.i = call i32 @llvm.bswap.i32(i32 %13)
  %14 = bitcast i32 %.1.insert.insert16.i.i.i to float
  %15 = select i1 %12, float %14, float %10
  store float %15, ptr %4, align 4, !tbaa !13
  %16 = load ptr, ptr %0, align 8, !tbaa !15
  %17 = load ptr, ptr %16, align 8, !tbaa !16
  %18 = getelementptr inbounds nuw i8, ptr %17, i64 16
  %19 = load ptr, ptr %18, align 8
  %20 = call noundef i64 %19(ptr noundef nonnull align 8 dereferenceable(8) %16, ptr noundef nonnull %4, i64 noundef 4)
  call void @llvm.lifetime.end.p0(i64 4, ptr nonnull %4) #3
  %21 = add nuw i64 %.0.i5.i.i, 1
  %exitcond.not = icmp eq i64 %21, %5
  br i1 %exitcond.not, label %_ZN3ozz2io8OArchivelsINS0_8internal5ArrayIKfEEEEvRKT_.exit, label %.lr.ph.i.i, !llvm.loop !18

22:                                               ; preds = %3
  %23 = mul i64 %2, 24
  %24 = load ptr, ptr %0, align 8, !tbaa !15
  %25 = load ptr, ptr %24, align 8, !tbaa !16
  %26 = getelementptr inbounds nuw i8, ptr %25, i64 16
  %27 = load ptr, ptr %26, align 8
  %28 = tail call noundef i64 %27(ptr noundef nonnull align 8 dereferenceable(8) %24, ptr noundef %1, i64 noundef %23)
  br label %_ZN3ozz2io8OArchivelsINS0_8internal5ArrayIKfEEEEvRKT_.exit

_ZN3ozz2io8OArchivelsINS0_8internal5ArrayIKfEEEEvRKT_.exit: ; preds = %.lr.ph.i.i, %.preheader.i.i, %22
  ret void
}